; Function Attrs: nounwind uwtable
define dso_local range(i64 0, 2) i64 @nameregexeq(ptr noundef readonly captures(none) %0) local_unnamed_addr #0 {
  %2 = getelementptr inbounds nuw i8, ptr %0, i64 32
  %3 = load i64, ptr %2, align 8
  %4 = inttoptr i64 %3 to ptr
  %5 = getelementptr inbounds nuw i8, ptr %0, i64 48
  %6 = load i64, ptr %5, align 8
  %7 = inttoptr i64 %6 to ptr
  %8 = tail call ptr @pg_detoast_datum_packed(ptr noundef %7) #9
  %9 = tail call i64 @strlen(ptr noundef nonnull dereferenceable(1) %4) #11
  %10 = trunc i64 %9 to i32
  %11 = getelementptr inbounds nuw i8, ptr %0, i64 24
  %12 = load i32, ptr %11, align 8
  %13 = tail call ptr @RE_compile_and_cache(ptr noundef %8, i32 noundef 19, i32 noundef %12)
  %14 = shl i64 %9, 32
  %sext = add i64 %14, 4294967296
  %15 = ashr exact i64 %sext, 30
  %16 = tail call ptr @palloc(i64 noundef %15) #9
  %17 = tail call i32 @pg_mb2wchar_with_len(ptr noundef nonnull %4, ptr noundef %16, i32 noundef %10) #9
  %18 = tail call fastcc zeroext i1 @RE_wchar_execute(ptr noundef %16, i32 noundef %17, i32 noundef 0, i32 noundef 0, ptr noundef null)
  tail call void @pfree(ptr noundef %16) #9
  %19 = zext i1 %18 to i64
  ret i64 %19
}